target datalayout = "e-m:e-p270:32:32-p271:32:32-p272:64:64-i64:64-i128:128-f80:128-n8:16:32:64-S128"
target triple = "x86_64-pc-linux-gnu"

%struct.MOVTrack = type { i32, i32, i32, i32, i64, i64, i32, i64, i64, i64, i32, i32, i32, i32, i32, i32, i32, ptr, ptr, i32, i32, i32, ptr, ptr, ptr, i32, i32, i32, i32, i32, i64, i64, i64, i32, i64, i32, i32, ptr, i32, i64, i32, i64, i32, i32, %struct.HintSampleQueue, ptr, ptr, i64, i32, i32, i32, ptr, i32, %struct.anon, ptr, %struct.MOVMuxCencContext, [256 x i32], i32, i32, i32, %struct.PacketList, ptr, i32, i32, ptr }
%struct.HintSampleQueue = type { i32, i32, ptr }
%struct.anon = type { i32, i32, i32, i32, i32, i32, i32 }
%struct.MOVMuxCencContext = type { ptr, ptr, i64, i64, i32, i32, i16, i64, ptr, i64, ptr, i32, i32, ptr, %struct.CodedBitstreamFragment }
%struct.CodedBitstreamFragment = type { ptr, i64, i64, ptr, i32, i32, ptr }
%struct.PacketList = type { ptr, ptr }

@.str.418 = private unnamed_addr constant [5 x i8] c"dmlp\00", align 1
@.str.419 = private unnamed_addr constant [84 x i8] c"Cannot write moov atom before TrueHD packets. Set the delay_moov flag to fix this.\0A\00", align 1

; Function Attrs: nounwind uwtable
define internal i64 @update_size(ptr noundef %0, i64 noundef %1) #0 {
  %3 = alloca ptr, align 8
  %4 = alloca i64, align 8
  %5 = alloca i64, align 8
  store ptr %0, ptr %3, align 8, !tbaa !31
  store i64 %1, ptr %4, align 8, !tbaa !134
  call void @llvm.lifetime.start.p0(i64 8, ptr %5) #14
  %6 = load ptr, ptr %3, align 8, !tbaa !31
  %7 = call i64 @avio_tell(ptr noundef %6)
  store i64 %7, ptr %5, align 8, !tbaa !134
  %8 = load ptr, ptr %3, align 8, !tbaa !31
  %9 = load i64, ptr %4, align 8, !tbaa !134
  %10 = call i64 @avio_seek(ptr noundef %8, i64 noundef %9, i32 noundef 0)
  %11 = load ptr, ptr %3, align 8, !tbaa !31
  %12 = load i64, ptr %5, align 8, !tbaa !134
  %13 = load i64, ptr %4, align 8, !tbaa !134
  %14 = sub nsw i64 %12, %13
  %15 = trunc i64 %14 to i32
  call void @avio_wb32(ptr noundef %11, i32 noundef %15)
  %16 = load ptr, ptr %3, align 8, !tbaa !31
  %17 = load i64, ptr %5, align 8, !tbaa !134
  %18 = call i64 @avio_seek(ptr noundef %16, i64 noundef %17, i32 noundef 0)
  %19 = load i64, ptr %5, align 8, !tbaa !134
  %20 = load i64, ptr %4, align 8, !tbaa !134
  %21 = sub nsw i64 %19, %20
  call void @llvm.lifetime.end.p0(i64 8, ptr %5) #14
  ret i64 %21
}

; Function Attrs: alwaysinline nounwind willreturn memory(none) uwtable
define internal i32 @av_bswap32(i32 noundef %0) #5 {
  %2 = alloca i32, align 4
  store i32 %0, ptr %2, align 4, !tbaa !32
  %3 = load i32, ptr %2, align 4, !tbaa !32
  %4 = shl i32 %3, 8
  %5 = and i32 %4, 65280
  %6 = load i32, ptr %2, align 4, !tbaa !32
  %7 = lshr i32 %6, 8
  %8 = and i32 %7, 255
  %9 = or i32 %5, %8
  %10 = shl i32 %9, 16
  %11 = load i32, ptr %2, align 4, !tbaa !32
  %12 = lshr i32 %11, 16
  %13 = shl i32 %12, 8
  %14 = and i32 %13, 65280
  %15 = load i32, ptr %2, align 4, !tbaa !32
  %16 = lshr i32 %15, 16
  %17 = lshr i32 %16, 8
  %18 = and i32 %17, 255
  %19 = or i32 %14, %18
  %20 = or i32 %10, %19
  ret i32 %20
}

; Function Attrs: alwaysinline nounwind willreturn memory(none) uwtable
define internal zeroext i16 @av_bswap16(i16 noundef zeroext %0) #5 {
  %2 = alloca i16, align 2
  store i16 %0, ptr %2, align 2, !tbaa !86
  %3 = load i16, ptr %2, align 2, !tbaa !86
  %4 = zext i16 %3 to i32
  %5 = ashr i32 %4, 8
  %6 = load i16, ptr %2, align 2, !tbaa !86
  %7 = zext i16 %6 to i32
  %8 = shl i32 %7, 8
  %9 = or i32 %5, %8
  %10 = trunc i32 %9 to i16
  store i16 %10, ptr %2, align 2, !tbaa !86
  %11 = load i16, ptr %2, align 2, !tbaa !86
  ret i16 %11
}

; Function Attrs: alwaysinline nounwind uwtable
define internal void @ffio_wfourcc(ptr noundef %0, ptr noundef %1) #6 {
  %3 = alloca ptr, align 8
  %4 = alloca ptr, align 8
  store ptr %0, ptr %3, align 8, !tbaa !31
  store ptr %1, ptr %4, align 8, !tbaa !38
  %5 = load ptr, ptr %3, align 8, !tbaa !31
  %6 = load ptr, ptr %4, align 8, !tbaa !38
  %7 = getelementptr inbounds i8, ptr %6, i64 0
  %8 = load i8, ptr %7, align 1, !tbaa !85
  %9 = zext i8 %8 to i32
  %10 = load ptr, ptr %4, align 8, !tbaa !38
  %11 = getelementptr inbounds i8, ptr %10, i64 1
  %12 = load i8, ptr %11, align 1, !tbaa !85
  %13 = zext i8 %12 to i32
  %14 = shl i32 %13, 8
  %15 = or i32 %9, %14
  %16 = load ptr, ptr %4, align 8, !tbaa !38
  %17 = getelementptr inbounds i8, ptr %16, i64 2
  %18 = load i8, ptr %17, align 1, !tbaa !85
  %19 = zext i8 %18 to i32
  %20 = shl i32 %19, 16
  %21 = or i32 %15, %20
  %22 = load ptr, ptr %4, align 8, !tbaa !38
  %23 = getelementptr inbounds i8, ptr %22, i64 3
  %24 = load i8, ptr %23, align 1, !tbaa !85
  %25 = zext i8 %24 to i32
  %26 = shl i32 %25, 24
  %27 = or i32 %21, %26
  call void @avio_wl32(ptr noundef %5, i32 noundef %27)
  ret void
}

; Function Attrs: alwaysinline nounwind uwtable
define internal i64 @avio_tell(ptr noundef %0) #6 {
  %2 = alloca ptr, align 8
  store ptr %0, ptr %2, align 8, !tbaa !31
  %3 = load ptr, ptr %2, align 8, !tbaa !31
  %4 = call i64 @avio_seek(ptr noundef %3, i64 noundef 0, i32 noundef 1)
  ret i64 %4
}

; Function Attrs: nounwind uwtable
define internal i32 @mov_write_dmlp_tag(ptr noundef %0, ptr noundef %1, ptr noundef %2) #0 {
  %4 = alloca i32, align 4
  %5 = alloca ptr, align 8
  %6 = alloca ptr, align 8
  %7 = alloca ptr, align 8
  %8 = alloca i64, align 8
  %9 = alloca i32, align 4
  %10 = alloca i32, align 4
  store ptr %0, ptr %5, align 8, !tbaa !4
  store ptr %1, ptr %6, align 8, !tbaa !31
  store ptr %2, ptr %7, align 8, !tbaa !47
  call void @llvm.lifetime.start.p0(i64 8, ptr %8) #14
  %11 = load ptr, ptr %6, align 8, !tbaa !31
  %12 = call i64 @avio_tell(ptr noundef %11)
  store i64 %12, ptr %8, align 8, !tbaa !134
  call void @llvm.lifetime.start.p0(i64 4, ptr %9) #14
  %13 = load ptr, ptr %6, align 8, !tbaa !31
  call void @avio_wb32(ptr noundef %13, i32 noundef 0)
  %14 = load ptr, ptr %6, align 8, !tbaa !31
  call void @ffio_wfourcc(ptr noundef %14, ptr noundef @.str.418)
  %15 = load ptr, ptr %7, align 8, !tbaa !47
  %16 = getelementptr inbounds nuw %struct.MOVTrack, ptr %15, i32 0, i32 21
  %17 = load i32, ptr %16, align 8, !tbaa !91
  %18 = icmp slt i32 %17, 20
  br i1 %18, label %19, label %21

19:                                               ; preds = %3
  %20 = load ptr, ptr %5, align 8, !tbaa !4
  call void (ptr, i32, ptr, ...) @av_log(ptr noundef %20, i32 noundef 16, ptr noundef @.str.419)
  store i32 -22, ptr %4, align 4
  store i32 1, ptr %10, align 4
  br label %70

21:                                               ; preds = %3
  %22 = load ptr, ptr %7, align 8, !tbaa !47
  %23 = getelementptr inbounds nuw %struct.MOVTrack, ptr %22, i32 0, i32 22
  %24 = load ptr, ptr %23, align 8, !tbaa !94
  %25 = load i16, ptr %24, align 1, !tbaa !85
  %26 = call zeroext i16 @av_bswap16(i16 noundef zeroext %25) #15
  %27 = zext i16 %26 to i32
  %28 = and i32 %27, 4095
  %29 = mul nsw i32 %28, 2
  store i32 %29, ptr %9, align 4, !tbaa !32
  %30 = load i32, ptr %9, align 4, !tbaa !32
  %31 = icmp slt i32 %30, 20
  br i1 %31, label %38, label %32

32:                                               ; preds = %21
  %33 = load i32, ptr %9, align 4, !tbaa !32
  %34 = load ptr, ptr %7, align 8, !tbaa !47
  %35 = getelementptr inbounds nuw %struct.MOVTrack, ptr %34, i32 0, i32 21
  %36 = load i32, ptr %35, align 8, !tbaa !91
  %37 = icmp sgt i32 %33, %36
  br i1 %37, label %38, label %39

38:                                               ; preds = %32, %21
  store i32 -1094995529, ptr %4, align 4
  store i32 1, ptr %10, align 4
  br label %70

39:                                               ; preds = %32
  %40 = load ptr, ptr %7, align 8, !tbaa !47
  %41 = getelementptr inbounds nuw %struct.MOVTrack, ptr %40, i32 0, i32 22
  %42 = load ptr, ptr %41, align 8, !tbaa !94
  %43 = getelementptr inbounds i8, ptr %42, i64 4
  %44 = load i32, ptr %43, align 1, !tbaa !85
  %45 = call i32 @av_bswap32(i32 noundef %44) #15
  %46 = icmp ne i32 %45, -126718022
  br i1 %46, label %47, label %48

47:                                               ; preds = %39
  store i32 -1094995529, ptr %4, align 4
  store i32 1, ptr %10, align 4
  br label %70

48:                                               ; preds = %39
  %49 = load ptr, ptr %6, align 8, !tbaa !31
  %50 = load ptr, ptr %7, align 8, !tbaa !47
  %51 = getelementptr inbounds nuw %struct.MOVTrack, ptr %50, i32 0, i32 22
  %52 = load ptr, ptr %51, align 8, !tbaa !94
  %53 = getelementptr inbounds i8, ptr %52, i64 8
  %54 = load i32, ptr %53, align 1, !tbaa !85
  %55 = call i32 @av_bswap32(i32 noundef %54) #15
  call void @avio_wb32(ptr noundef %49, i32 noundef %55)
  %56 = load ptr, ptr %6, align 8, !tbaa !31
  %57 = load ptr, ptr %7, align 8, !tbaa !47
  %58 = getelementptr inbounds nuw %struct.MOVTrack, ptr %57, i32 0, i32 22
  %59 = load ptr, ptr %58, align 8, !tbaa !94
  %60 = getelementptr inbounds i8, ptr %59, i64 18
  %61 = load i16, ptr %60, align 1, !tbaa !85
  %62 = call zeroext i16 @av_bswap16(i16 noundef zeroext %61) #15
  %63 = zext i16 %62 to i32
  %64 = shl i32 %63, 1
  call void @avio_wb16(ptr noundef %56, i32 noundef %64)
  %65 = load ptr, ptr %6, align 8, !tbaa !31
  call void @avio_wb32(ptr noundef %65, i32 noundef 0)
  %66 = load ptr, ptr %6, align 8, !tbaa !31
  %67 = load i64, ptr %8, align 8, !tbaa !134
  %68 = call i64 @update_size(ptr noundef %66, i64 noundef %67)
  %69 = trunc i64 %68 to i32
  store i32 %69, ptr %4, align 4
  store i32 1, ptr %10, align 4
  br label %70

70:                                               ; preds = %48, %47, %38, %19
  call void @llvm.lifetime.end.p0(i64 4, ptr %9) #14
  call void @llvm.lifetime.end.p0(i64 8, ptr %8) #14
  %71 = load i32, ptr %4, align 4
  ret i32 %71
}