; Function Attrs: nounwind uwtable
define internal fastcc noundef i32 @mov_write_dmlp_tag(ptr noundef %0, ptr noundef %1, ptr noundef readonly captures(none) %2) unnamed_addr #0 {
  %4 = tail call i64 @avio_seek(ptr noundef %1, i64 noundef 0, i32 noundef 1) #16
  tail call void @avio_wb32(ptr noundef %1, i32 noundef 0) #16
  tail call void @avio_wl32(ptr noundef %1, i32 noundef 1886154084) #16
  %5 = getelementptr inbounds nuw i8, ptr %2, i64 120
  %6 = load i32, ptr %5, align 8, !tbaa !94
  %7 = icmp slt i32 %6, 20
  br i1 %7, label %8, label %9

8:                                                ; preds = %3
  tail call void (ptr, i32, ptr, ...) @av_log(ptr noundef %0, i32 noundef 16, ptr noundef nonnull @.str.419) #16
  br label %37

9:                                                ; preds = %3
  %10 = getelementptr inbounds nuw i8, ptr %2, i64 128
  %11 = load ptr, ptr %10, align 8, !tbaa !97
  %12 = load i16, ptr %11, align 1, !tbaa !88
  %13 = tail call i16 @llvm.bswap.i16(i16 %12)
  %14 = shl i16 %13, 1
  %15 = and i16 %14, 8190
  %16 = icmp samesign ult i16 %15, 20
  %17 = zext nneg i16 %15 to i32
  %18 = icmp samesign ult i32 %6, %17
  %or.cond = select i1 %16, i1 true, i1 %18
  br i1 %or.cond, label %37, label %19

19:                                               ; preds = %9
  %20 = getelementptr inbounds nuw i8, ptr %11, i64 4
  %21 = load i32, ptr %20, align 1, !tbaa !88
  %.not = icmp eq i32 %21, -1167101192
  br i1 %.not, label %22, label %37

22:                                               ; preds = %19
  %23 = getelementptr inbounds nuw i8, ptr %11, i64 8
  %24 = load i32, ptr %23, align 1, !tbaa !88
  %25 = tail call i32 @llvm.bswap.i32(i32 %24)
  tail call void @avio_wb32(ptr noundef %1, i32 noundef %25) #16
  %26 = load ptr, ptr %10, align 8, !tbaa !97
  %27 = getelementptr inbounds nuw i8, ptr %26, i64 18
  %28 = load i16, ptr %27, align 1, !tbaa !88
  %29 = tail call i16 @llvm.bswap.i16(i16 %28)
  %30 = zext i16 %29 to i32
  %31 = shl nuw nsw i32 %30, 1
  tail call void @avio_wb16(ptr noundef %1, i32 noundef %31) #16
  tail call void @avio_wb32(ptr noundef %1, i32 noundef 0) #16
  %32 = tail call i64 @avio_seek(ptr noundef %1, i64 noundef 0, i32 noundef 1) #16
  %33 = tail call i64 @avio_seek(ptr noundef %1, i64 noundef %4, i32 noundef 0) #16
  %34 = sub nsw i64 %32, %4
  %35 = trunc i64 %34 to i32
  tail call void @avio_wb32(ptr noundef %1, i32 noundef %35) #16
  %36 = tail call i64 @avio_seek(ptr noundef %1, i64 noundef %32, i32 noundef 0) #16
  br label %37

37:                                               ; preds = %19, %9, %22, %8
  %.0 = phi i32 [ -22, %8 ], [ %35, %22 ], [ -1094995529, %9 ], [ -1094995529, %19 ]
  ret i32 %.0
}